Certificate:
    Data:
        Version: 3 (0x2)
        Serial Number: 6 (0x6)
    Signature Algorithm: sha512WithRSAEncryption
        Issuer: C=US, ST=Tennessee, O=Bryan Burke, CN=Internal CA/emailAddress=bburke@baburke.net
        Validity
            Not Before: Mar  2 16:26:03 2015 GMT
            Not After : Feb 29 16:26:03 2020 GMT
        Subject: C=US, ST=Tennessee, O=Bryan Burke, CN=Internal CA/emailAddress=bburke@baburke.net
        Subject Public Key Info:
            Public Key Algorithm: rsaEncryption
                Public-Key: (4096 bit)
                Modulus:
                    00:d2:10:f8:a5:3d:0b:2b:0b:1a:d6:40:35:f5:70:
                    08:d2:32:67:5e:53:78:bb:fc:9c:0f:3d:24:a5:0c:
                    2e:47:38:4a:ef:2e:55:e2:41:77:58:b0:4f:53:d9:
                    fd:ad:20:6c:ce:76:af:03:95:70:09:69:3c:3e:fc:
                    3e:b4:21:26:26:6b:90:00:69:0d:21:91:ea:39:ee:
                    36:02:3b:0f:da:e3:a9:94:a2:7c:f6:92:72:a8:48:
                    98:84:77:42:41:85:03:cf:25:12:9a:5a:8d:12:82:
                    01:49:ef:82:a8:25:21:76:6b:03:a5:5c:2b:fd:51:
                    38:f2:1d:a4:c2:5b:7d:63:0b:ca:0d:e3:8d:70:b7:
                    c4:09:8f:71:c9:17:02:9a:58:a7:c2:a5:c5:fd:1f:
                    3e:51:dd:05:f5:de:06:0b:a5:bc:84:3e:5c:0b:8b:
                    a4:0f:a5:4e:35:24:93:fa:69:1f:cd:b0:0d:4d:d6:
                    0f:76:de:6b:57:02:91:84:16:99:8c:35:b7:62:bf:
                    a4:7c:7f:71:b9:34:98:1e:70:90:4d:31:21:74:10:
                    6c:b9:1a:cb:07:65:90:be:c9:6b:59:5a:49:08:35:
                    dd:4b:65:a4:df:15:2f:51:cb:9a:32:c7:b2:f6:fe:
                    64:80:f5:d6:96:62:ba:d5:cc:9a:fc:dd:26:7a:9a:
                    5a:0c:eb:b2:b2:1c:3b:47:3d:e1:41:ae:d2:94:a1:
                    6f:f6:fe:62:e9:4b:e0:df:29:09:62:8f:d6:db:c1:
                    aa:78:48:23:d6:f4:3d:62:b5:65:5d:e6:c0:12:9b:
                    77:08:6e:7e:09:d5:26:3f:02:60:1d:a1:b9:41:a8:
                    45:5b:11:b9:cb:9a:35:3d:73:39:cf:f7:e2:c1:bd:
                    54:5c:6c:8b:bc:1c:d4:e3:f0:59:24:02:b0:bf:cc:
                    da:5d:75:5c:91:31:3e:c2:a7:be:b2:44:92:00:47:
                    b0:1b:77:b6:34:c2:24:c4:f0:58:cf:d4:b4:6a:80:
                    46:5b:ed:a4:29:5f:85:b2:8f:ea:6f:0f:c9:e0:72:
                    ae:43:a2:00:42:4d:e3:9c:6f:7b:29:98:22:1b:72:
                    11:c5:b0:95:1e:f5:cd:fa:78:49:10:20:df:a5:28:
                    ca:12:d0:90:ec:b8:c9:fc:c7:cb:ea:e4:97:6b:a4:
                    60:52:02:a8:da:b0:1d:3a:b3:4a:e8:22:d4:5b:bc:
                    c3:42:57:48:cb:c2:4e:61:88:2b:0a:7c:cb:07:dd:
                    5a:23:cd:87:fe:a1:32:74:be:21:08:bb:2a:8d:ea:
                    6f:9b:e9:ca:0f:97:f9:e9:3a:82:50:eb:2b:ac:75:
                    ee:7b:1f:ee:e5:f3:11:43:9c:e8:eb:b4:31:5c:c8:
                    36:12:b5
                Exponent: 65537 (0x10001)
        X509v3 extensions:
            X509v3 Subject Key Identifier: 
                41:C1:FD:61:89:BA:DA:B5:04:07:0D:DE:C2:E8:32:D4:02:4F:40:4A
            X509v3 Authority Key Identifier: 
                keyid:41:C1:FD:61:89:BA:DA:B5:04:07:0D:DE:C2:E8:32:D4:02:4F:40:4A

            X509v3 Basic Constraints: critical
                CA:TRUE, pathlen:1
            X509v3 Key Usage: 
                Certificate Sign, CRL Sign
            X509v3 Subject Alternative Name: 
                email:bburke@baburke.net
            X509v3 CRL Distribution Points: 

                Full Name:
                  URI:http://www.baburke.net/files/ca.crl

    Signature Algorithm: sha512WithRSAEncryption
         69:b3:56:d4:94:81:cf:9f:bb:81:49:68:7b:d1:a1:5d:0d:0d:
         d0:b4:13:9e:50:0e:12:50:f0:69:e7:a8:34:17:4e:9a:4d:b7:
         f0:3a:a1:92:41:fd:af:e2:76:64:b3:06:95:0a:07:8d:ba:44:
         6f:84:c6:10:d8:a1:0c:12:d0:a0:64:fe:d6:cb:dc:76:55:29:
         fe:c1:97:78:ae:41:59:60:fc:42:cc:b5:a7:66:cb:c4:d5:31:
         6f:e9:18:df:93:c0:cf:2e:49:c8:4d:ea:92:ce:4e:4b:4c:b8:
         48:9f:15:52:ea:0f:b1:e9:71:90:ac:cf:83:14:21:c6:14:f0:
         26:83:64:ba:d3:60:47:21:4e:18:cf:25:57:d5:54:54:af:68:
         cc:b4:e1:7f:2e:39:ba:d1:44:58:68:a6:89:a0:7e:8d:23:52:
         c2:b2:8d:1f:8f:ef:ec:49:e0:cd:eb:3e:5f:72:74:b6:23:c8:
         d1:ae:9d:8b:80:cb:d2:72:6a:9d:bb:97:e5:99:8c:dc:97:80:
         f5:73:f6:84:c9:2d:2d:23:4f:c2:00:94:2e:32:dc:8f:91:23:
         de:c1:3e:80:24:85:9d:6d:dd:6d:44:c5:23:0e:2e:81:e3:3a:
         0d:a1:ef:95:dc:eb:42:5c:5d:df:49:db:0e:f1:9d:b3:78:c5:
         94:b0:7f:aa:6b:e6:cd:e2:5a:b6:98:b3:26:e5:7d:8f:eb:30:
         72:9a:d3:96:60:59:d2:ec:77:48:61:5b:da:a3:05:32:36:9b:
         82:d4:93:53:d1:d0:9e:b7:06:68:92:75:08:db:88:8b:30:0c:
         34:ae:4a:d6:e4:1c:85:48:d6:c9:7a:33:54:02:55:f5:41:3c:
         57:b3:d0:b6:dc:65:b5:6f:65:ef:56:ea:a3:de:eb:bb:0a:6d:
         27:4c:ed:bd:39:d1:c8:15:53:e3:93:b4:73:a3:c8:1e:b0:10:
         ff:15:60:59:4f:67:a5:f4:41:1b:7a:e4:0b:b9:0b:af:bd:de:
         ab:af:65:83:59:9a:17:73:44:7f:f5:d3:d9:71:32:5d:7d:8a:
         3a:34:14:fd:7a:31:3c:1d:e8:f2:10:89:cb:07:d7:55:8e:1b:
         ce:e0:68:a0:b7:40:7d:9a:40:d8:41:3d:97:f5:8d:a9:b7:e9:
         af:12:c0:62:9f:48:e6:cf:60:cb:8e:f0:c5:1b:ae:5a:09:a1:
         16:38:0f:67:7c:7d:d6:60:09:e4:4d:02:4d:a0:9c:b9:31:d4:
         19:50:a6:da:e8:52:d2:be:a7:d2:e8:bd:f5:45:0a:56:22:84:
         77:5e:8d:fb:f5:c7:1d:bd:49:a3:2a:ad:e9:2f:82:ea:96:f2:
         3b:33:1a:34:28:3b:73:f2
-----BEGIN CERTIFICATE-----
MIIGFTCCA/2gAwIBAgIBBjANBgkqhkiG9w0BAQ0FADBwMQswCQYDVQQGEwJVUzES
MBAGA1UECAwJVGVubmVzc2VlMRQwEgYDVQQKDAtCcnlhbiBCdXJrZTEUMBIGA1UE
AwwLSW50ZXJuYWwgQ0ExITAfBgkqhkiG9w0BCQEWEmJidXJrZUBiYWJ1cmtlLm5l
dDAeFw0xNTAzMDIxNjI2MDNaFw0yMDAyMjkxNjI2MDNaMHAxCzAJBgNVBAYTAlVT
MRIwEAYDVQQIDAlUZW5uZXNzZWUxFDASBgNVBAoMC0JyeWFuIEJ1cmtlMRQwEgYD
VQQDDAtJbnRlcm5hbCBDQTEhMB8GCSqGSIb3DQEJARYSYmJ1cmtlQGJhYnVya2Uu
bmV0MIICIjANBgkqhkiG9w0BAQEFAAOCAg8AMIICCgKCAgEA0hD4pT0LKwsa1kA1
9XAI0jJnXlN4u/ycDz0kpQwuRzhK7y5V4kF3WLBPU9n9rSBsznavA5VwCWk8Pvw+
tCEmJmuQAGkNIZHqOe42AjsP2uOplKJ89pJyqEiYhHdCQYUDzyUSmlqNEoIBSe+C
qCUhdmsDpVwr/VE48h2kwlt9YwvKDeONcLfECY9xyRcCmlinwqXF/R8+Ud0F9d4G
C6W8hD5cC4ukD6VONSST+mkfzbANTdYPdt5rVwKRhBaZjDW3Yr+kfH9xuTSYHnCQ
TTEhdBBsuRrLB2WQvslrWVpJCDXdS2Wk3xUvUcuaMsey9v5kgPXWlmK61cya/N0m
eppaDOuyshw7Rz3hQa7SlKFv9v5i6Uvg3ykJYo/W28GqeEgj1vQ9YrVlXebAEpt3
CG5+CdUmPwJgHaG5QahFWxG5y5o1PXM5z/fiwb1UXGyLvBzU4/BZJAKwv8zaXXVc
kTE+wqe+skSSAEewG3e2NMIkxPBYz9S0aoBGW+2kKV+Fso/qbw/J4HKuQ6IAQk3j
nG97KZgiG3IRxbCVHvXN+nhJECDfpSjKEtCQ7LjJ/MfL6uSXa6RgUgKo2rAdOrNK
6CLUW7zDQldIy8JOYYgrCnzLB91aI82H/qEydL4hCLsqjepvm+nKD5f56TqCUOsr
rHXuex/u5fMRQ5zo67QxXMg2ErUCAwEAAaOBuTCBtjAdBgNVHQ4EFgQUQcH9YYm6
2rUEBw3ewugy1AJPQEowHwYDVR0jBBgwFoAUQcH9YYm62rUEBw3ewugy1AJPQEow
EgYDVR0TAQH/BAgwBgEB/wIBATALBgNVHQ8EBAMCAQYwHQYDVR0RBBYwFIESYmJ1
cmtlQGJhYnVya2UubmV0MDQGA1UdHwQtMCswKaAnoCWGI2h0dHA6Ly93d3cuYmFi
dXJrZS5uZXQvZmlsZXMvY2EuY3JsMA0GCSqGSIb3DQEBDQUAA4ICAQBps1bUlIHP
n7uBSWh70aFdDQ3QtBOeUA4SUPBp56g0F06aTbfwOqGSQf2v4nZkswaVCgeNukRv
hMYQ2KEMEtCgZP7Wy9x2VSn+wZd4rkFZYPxCzLWnZsvE1TFv6Rjfk8DPLknITeqS
zk5LTLhInxVS6g+x6XGQrM+DFCHGFPAmg2S602BHIU4YzyVX1VRUr2jMtOF/Ljm6
0URYaKaJoH6NI1LCso0fj+/sSeDN6z5fcnS2I8jRrp2LgMvScmqdu5flmYzcl4D1
c/aEyS0tI0/CAJQuMtyPkSPewT6AJIWdbd1tRMUjDi6B4zoNoe+V3OtCXF3fSdsO
8Z2zeMWUsH+qa+bN4lq2mLMm5X2P6zBymtOWYFnS7HdIYVvaowUyNpuC1JNT0dCe
twZoknUI24iLMAw0rkrW5ByFSNbJejNUAlX1QTxXs9C23GW1b2XvVuqj3uu7Cm0n
TO29OdHIFVPjk7Rzo8gesBD/FWBZT2el9EEbeuQLuQuvvd6rr2WDWZoXc0R/9dPZ
cTJdfYo6NBT9ejE8HejyEInLB9dVjhvO4Gigt0B9mkDYQT2X9Y2pt+mvEsBin0jm
z2DLjvDFG65aCaEWOA9nfH3WYAnkTQJNoJy5MdQZUKba6FLSvqfS6L31RQpWIoR3
Xo379ccdvUmjKq3pL4LqlvI7Mxo0KDtz8g==
-----END CERTIFICATE-----
